; Function Attrs: nounwind uwtable
define internal void @ft_bzip2_stream_close(ptr nocapture noundef %0) #0 {
  %2 = getelementptr inbounds i8, ptr %0, i64 24
  %3 = load ptr, ptr %2, align 8
  %.not = icmp eq ptr %3, null
  br i1 %.not, label %12, label %4

4:                                                ; preds = %1
  %5 = getelementptr inbounds i8, ptr %0, i64 56
  %6 = load ptr, ptr %5, align 8
  %7 = getelementptr inbounds i8, ptr %3, i64 24
  %8 = tail call i32 @BZ2_bzDecompressEnd(ptr noundef nonnull %7) #6
  %9 = getelementptr inbounds i8, ptr %3, i64 80
  %10 = getelementptr inbounds i8, ptr %3, i64 48
  store ptr null, ptr %10, align 8
  %11 = getelementptr inbounds i8, ptr %3, i64 56
  store i32 0, ptr %11, align 8
  tail call void @llvm.memset.p0.i64(ptr noundef nonnull align 8 dereferenceable(36) %3, i8 0, i64 36, i1 false)
  tail call void @llvm.memset.p0.i64(ptr noundef nonnull align 8 dereferenceable(24) %9, i8 0, i64 24, i1 false)
  tail call void @ft_mem_free(ptr noundef %6, ptr noundef nonnull %3) #6
  store ptr null, ptr %2, align 8
  br label %12

12:                                               ; preds = %4, %1
  ret void
}